target datalayout = "e-m:e-p270:32:32-p271:32:32-p272:64:64-i64:64-i128:128-f80:128-n8:16:32:64-S128"
target triple = "x86_64-pc-linux-gnu"

%struct.AVFilterContext = type { ptr, ptr, ptr, ptr, ptr, i32, ptr, ptr, i32, ptr, ptr, i32, i32, ptr, ptr, ptr, ptr, i32, ptr, i32, i32 }
%struct.PermsContext = type { ptr, %struct.AVLFG, i64, i32 }
%struct.AVLFG = type { [64 x i32], i32 }
%struct.AVFilterLink = type { ptr, ptr, ptr, ptr, i32, i32, i32, i32, %struct.AVRational, i32, i32, i32, %struct.AVChannelLayout, %struct.AVRational, ptr, i32, %struct.AVFilterFormatsConfig, %struct.AVFilterFormatsConfig }
%struct.AVChannelLayout = type { i32, i32, %union.anon.1, ptr }
%union.anon.1 = type { i64 }
%struct.AVRational = type { i32, i32 }
%struct.AVFilterFormatsConfig = type { ptr, ptr, ptr, ptr, ptr }

@.str.5 = private unnamed_addr constant [12 x i8] c"%s -> %s%s\0A\00", align 1
@perm_str = internal constant [2 x ptr] [ptr @.str.8, ptr @.str.9], align 16
@.str.6 = private unnamed_addr constant [9 x i8] c" (no-op)\00", align 1
@.str.7 = private unnamed_addr constant [1 x i8] zeroinitializer, align 1

; Function Attrs: inlinehint nounwind uwtable
define internal i32 @av_lfg_get(ptr noundef %0) #4 {
  %2 = alloca ptr, align 8
  %3 = alloca i32, align 4
  store ptr %0, ptr %2, align 8, !tbaa !44
  call void @llvm.lifetime.start.p0(i64 4, ptr %3) #5
  %4 = load ptr, ptr %2, align 8, !tbaa !44
  %5 = getelementptr inbounds nuw %struct.AVLFG, ptr %4, i32 0, i32 0
  %6 = load ptr, ptr %2, align 8, !tbaa !44
  %7 = getelementptr inbounds nuw %struct.AVLFG, ptr %6, i32 0, i32 1
  %8 = load i32, ptr %7, align 4, !tbaa !46
  %9 = sub nsw i32 %8, 24
  %10 = and i32 %9, 63
  %11 = sext i32 %10 to i64
  %12 = getelementptr inbounds [64 x i32], ptr %5, i64 0, i64 %11
  %13 = load i32, ptr %12, align 4, !tbaa !28
  %14 = load ptr, ptr %2, align 8, !tbaa !44
  %15 = getelementptr inbounds nuw %struct.AVLFG, ptr %14, i32 0, i32 0
  %16 = load ptr, ptr %2, align 8, !tbaa !44
  %17 = getelementptr inbounds nuw %struct.AVLFG, ptr %16, i32 0, i32 1
  %18 = load i32, ptr %17, align 4, !tbaa !46
  %19 = sub nsw i32 %18, 55
  %20 = and i32 %19, 63
  %21 = sext i32 %20 to i64
  %22 = getelementptr inbounds [64 x i32], ptr %15, i64 0, i64 %21
  %23 = load i32, ptr %22, align 4, !tbaa !28
  %24 = add i32 %13, %23
  %25 = load ptr, ptr %2, align 8, !tbaa !44
  %26 = getelementptr inbounds nuw %struct.AVLFG, ptr %25, i32 0, i32 0
  %27 = load ptr, ptr %2, align 8, !tbaa !44
  %28 = getelementptr inbounds nuw %struct.AVLFG, ptr %27, i32 0, i32 1
  %29 = load i32, ptr %28, align 4, !tbaa !46
  %30 = and i32 %29, 63
  %31 = sext i32 %30 to i64
  %32 = getelementptr inbounds [64 x i32], ptr %26, i64 0, i64 %31
  store i32 %24, ptr %32, align 4, !tbaa !28
  store i32 %24, ptr %3, align 4, !tbaa !28
  %33 = load ptr, ptr %2, align 8, !tbaa !44
  %34 = getelementptr inbounds nuw %struct.AVLFG, ptr %33, i32 0, i32 1
  %35 = load i32, ptr %34, align 4, !tbaa !46
  %36 = add i32 %35, 1
  store i32 %36, ptr %34, align 4, !tbaa !46
  %37 = load i32, ptr %3, align 4, !tbaa !28
  call void @llvm.lifetime.end.p0(i64 4, ptr %3) #5
  ret i32 %37
}

; Function Attrs: nounwind uwtable
define internal i32 @filter_frame(ptr noundef %0, ptr noundef %1) #2 {
  %3 = alloca i32, align 4
  %4 = alloca ptr, align 8
  %5 = alloca ptr, align 8
  %6 = alloca i32, align 4
  %7 = alloca ptr, align 8
  %8 = alloca ptr, align 8
  %9 = alloca ptr, align 8
  %10 = alloca i32, align 4
  %11 = alloca i32, align 4
  %12 = alloca i32, align 4
  store ptr %0, ptr %4, align 8, !tbaa !29
  store ptr %1, ptr %5, align 8, !tbaa !31
  call void @llvm.lifetime.start.p0(i64 4, ptr %6) #5
  call void @llvm.lifetime.start.p0(i64 8, ptr %7) #5
  %13 = load ptr, ptr %4, align 8, !tbaa !29
  %14 = getelementptr inbounds nuw %struct.AVFilterLink, ptr %13, i32 0, i32 2
  %15 = load ptr, ptr %14, align 8, !tbaa !33
  store ptr %15, ptr %7, align 8, !tbaa !4
  call void @llvm.lifetime.start.p0(i64 8, ptr %8) #5
  %16 = load ptr, ptr %7, align 8, !tbaa !4
  %17 = getelementptr inbounds nuw %struct.AVFilterContext, ptr %16, i32 0, i32 9
  %18 = load ptr, ptr %17, align 8, !tbaa !9
  store ptr %18, ptr %8, align 8, !tbaa !22
  call void @llvm.lifetime.start.p0(i64 8, ptr %9) #5
  %19 = load ptr, ptr %5, align 8, !tbaa !31
  store ptr %19, ptr %9, align 8, !tbaa !31
  call void @llvm.lifetime.start.p0(i64 4, ptr %10) #5
  %20 = load ptr, ptr %5, align 8, !tbaa !31
  %21 = call i32 @av_frame_is_writable(ptr noundef %20)
  %22 = icmp ne i32 %21, 0
  %23 = select i1 %22, i32 1, i32 0
  store i32 %23, ptr %10, align 4, !tbaa !28
  call void @llvm.lifetime.start.p0(i64 4, ptr %11) #5
  %24 = load ptr, ptr %8, align 8, !tbaa !22
  %25 = getelementptr inbounds nuw %struct.PermsContext, ptr %24, i32 0, i32 3
  %26 = load i32, ptr %25, align 8, !tbaa !41
  switch i32 %26, label %40 [
    i32 3, label %27
    i32 4, label %31
    i32 1, label %38
    i32 2, label %39
  ]

27:                                               ; preds = %2
  %28 = load i32, ptr %10, align 4, !tbaa !28
  %29 = icmp eq i32 %28, 0
  %30 = select i1 %29, i32 1, i32 0
  store i32 %30, ptr %11, align 4, !tbaa !28
  br label %42

31:                                               ; preds = %2
  %32 = load ptr, ptr %8, align 8, !tbaa !22
  %33 = getelementptr inbounds nuw %struct.PermsContext, ptr %32, i32 0, i32 1
  %34 = call i32 @av_lfg_get(ptr noundef %33)
  %35 = and i32 %34, 1
  %36 = icmp ne i32 %35, 0
  %37 = select i1 %36, i32 1, i32 0
  store i32 %37, ptr %11, align 4, !tbaa !28
  br label %42

38:                                               ; preds = %2
  store i32 0, ptr %11, align 4, !tbaa !28
  br label %42

39:                                               ; preds = %2
  store i32 1, ptr %11, align 4, !tbaa !28
  br label %42

40:                                               ; preds = %2
  %41 = load i32, ptr %10, align 4, !tbaa !28
  store i32 %41, ptr %11, align 4, !tbaa !28
  br label %42

42:                                               ; preds = %40, %39, %38, %31, %27
  %43 = load ptr, ptr %7, align 8, !tbaa !4
  %44 = load i32, ptr %10, align 4, !tbaa !28
  %45 = zext i32 %44 to i64
  %46 = getelementptr inbounds nuw [2 x ptr], ptr @perm_str, i64 0, i64 %45
  %47 = load ptr, ptr %46, align 8, !tbaa !42
  %48 = load i32, ptr %11, align 4, !tbaa !28
  %49 = zext i32 %48 to i64
  %50 = getelementptr inbounds nuw [2 x ptr], ptr @perm_str, i64 0, i64 %49
  %51 = load ptr, ptr %50, align 8, !tbaa !42
  %52 = load i32, ptr %10, align 4, !tbaa !28
  %53 = load i32, ptr %11, align 4, !tbaa !28
  %54 = icmp eq i32 %52, %53
  %55 = select i1 %54, ptr @.str.6, ptr @.str.7
  call void (ptr, i32, ptr, ...) @av_log(ptr noundef %43, i32 noundef 40, ptr noundef @.str.5, ptr noundef %47, ptr noundef %51, ptr noundef %55)
  %56 = load i32, ptr %10, align 4, !tbaa !28
  %57 = icmp eq i32 %56, 0
  br i1 %57, label %58, label %69

58:                                               ; preds = %42
  %59 = load i32, ptr %11, align 4, !tbaa !28
  %60 = icmp eq i32 %59, 1
  br i1 %60, label %61, label %69

61:                                               ; preds = %58
  %62 = load ptr, ptr %4, align 8, !tbaa !29
  %63 = call i32 @ff_inlink_make_frame_writable(ptr noundef %62, ptr noundef %5)
  store i32 %63, ptr %6, align 4, !tbaa !28
  %64 = icmp slt i32 %63, 0
  br i1 %64, label %65, label %67

65:                                               ; preds = %61
  %66 = load i32, ptr %6, align 4, !tbaa !28
  store i32 %66, ptr %3, align 4
  store i32 1, ptr %12, align 4
  br label %99

67:                                               ; preds = %61
  %68 = load ptr, ptr %5, align 8, !tbaa !31
  store ptr %68, ptr %9, align 8, !tbaa !31
  br label %83

69:                                               ; preds = %58, %42
  %70 = load i32, ptr %10, align 4, !tbaa !28
  %71 = icmp eq i32 %70, 1
  br i1 %71, label %72, label %82

72:                                               ; preds = %69
  %73 = load i32, ptr %11, align 4, !tbaa !28
  %74 = icmp eq i32 %73, 0
  br i1 %74, label %75, label %82

75:                                               ; preds = %72
  %76 = load ptr, ptr %5, align 8, !tbaa !31
  %77 = call ptr @av_frame_clone(ptr noundef %76)
  store ptr %77, ptr %9, align 8, !tbaa !31
  %78 = load ptr, ptr %9, align 8, !tbaa !31
  %79 = icmp ne ptr %78, null
  br i1 %79, label %81, label %80

80:                                               ; preds = %75
  store i32 -12, ptr %3, align 4
  store i32 1, ptr %12, align 4
  br label %99

81:                                               ; preds = %75
  br label %82

82:                                               ; preds = %81, %72, %69
  br label %83

83:                                               ; preds = %82, %67
  %84 = load ptr, ptr %7, align 8, !tbaa !4
  %85 = getelementptr inbounds nuw %struct.AVFilterContext, ptr %84, i32 0, i32 7
  %86 = load ptr, ptr %85, align 8, !tbaa !43
  %87 = getelementptr inbounds ptr, ptr %86, i64 0
  %88 = load ptr, ptr %87, align 8, !tbaa !29
  %89 = load ptr, ptr %9, align 8, !tbaa !31
  %90 = call i32 @ff_filter_frame(ptr noundef %88, ptr noundef %89)
  store i32 %90, ptr %6, align 4, !tbaa !28
  %91 = load i32, ptr %10, align 4, !tbaa !28
  %92 = icmp eq i32 %91, 1
  br i1 %92, label %93, label %97

93:                                               ; preds = %83
  %94 = load i32, ptr %11, align 4, !tbaa !28
  %95 = icmp eq i32 %94, 0
  br i1 %95, label %96, label %97

96:                                               ; preds = %93
  call void @av_frame_free(ptr noundef %5)
  br label %97

97:                                               ; preds = %96, %93, %83
  %98 = load i32, ptr %6, align 4, !tbaa !28
  store i32 %98, ptr %3, align 4
  store i32 1, ptr %12, align 4
  br label %99

99:                                               ; preds = %97, %80, %65
  call void @llvm.lifetime.end.p0(i64 4, ptr %11) #5
  call void @llvm.lifetime.end.p0(i64 4, ptr %10) #5
  call void @llvm.lifetime.end.p0(i64 8, ptr %9) #5
  call void @llvm.lifetime.end.p0(i64 8, ptr %8) #5
  call void @llvm.lifetime.end.p0(i64 8, ptr %7) #5
  call void @llvm.lifetime.end.p0(i64 4, ptr %6) #5
  %100 = load i32, ptr %3, align 4
  ret i32 %100
}