; Function Attrs: nounwind uwtable
define internal i32 @filter_frame(ptr noundef %0, ptr noundef %1) #2 {
  %3 = alloca ptr, align 8
  store ptr %1, ptr %3, align 8, !tbaa !24
  %4 = getelementptr inbounds nuw i8, ptr %0, i64 16
  %5 = load ptr, ptr %4, align 8, !tbaa !26
  %6 = getelementptr inbounds nuw i8, ptr %5, i64 72
  %7 = load ptr, ptr %6, align 8, !tbaa !4
  %8 = tail call i32 @av_frame_is_writable(ptr noundef %1) #3
  %9 = icmp ne i32 %8, 0
  %10 = zext i1 %9 to i32
  %11 = getelementptr inbounds nuw i8, ptr %7, i64 280
  %12 = load i32, ptr %11, align 8, !tbaa !35
  switch i32 %12, label %37 [
    i32 3, label %13
    i32 4, label %16
    i32 1, label %38
    i32 2, label %36
  ]

13:                                               ; preds = %2
  %14 = xor i1 %9, true
  %15 = zext i1 %14 to i32
  br label %38

16:                                               ; preds = %2
  %17 = getelementptr inbounds nuw i8, ptr %7, i64 8
  %18 = getelementptr inbounds nuw i8, ptr %7, i64 264
  %19 = load i32, ptr %18, align 4, !tbaa !36
  %20 = add i32 %19, 40
  %21 = and i32 %20, 63
  %22 = zext nneg i32 %21 to i64
  %23 = getelementptr inbounds nuw [64 x i32], ptr %17, i64 0, i64 %22
  %24 = load i32, ptr %23, align 4, !tbaa !37
  %25 = add i32 %19, 9
  %26 = and i32 %25, 63
  %27 = zext nneg i32 %26 to i64
  %28 = getelementptr inbounds nuw [64 x i32], ptr %17, i64 0, i64 %27
  %29 = load i32, ptr %28, align 4, !tbaa !37
  %30 = add i32 %29, %24
  %31 = and i32 %19, 63
  %32 = zext nneg i32 %31 to i64
  %33 = getelementptr inbounds nuw [64 x i32], ptr %17, i64 0, i64 %32
  store i32 %30, ptr %33, align 4, !tbaa !37
  %34 = add i32 %19, 1
  store i32 %34, ptr %18, align 4, !tbaa !36
  %35 = and i32 %30, 1
  br label %38

36:                                               ; preds = %2
  br label %38

37:                                               ; preds = %2
  br label %38

38:                                               ; preds = %2, %37, %36, %16, %13
  %.0 = phi i32 [ %10, %37 ], [ 1, %36 ], [ %35, %16 ], [ %15, %13 ], [ 0, %2 ]
  %39 = zext i1 %9 to i64
  %40 = getelementptr inbounds nuw [2 x ptr], ptr @perm_str, i64 0, i64 %39
  %41 = load ptr, ptr %40, align 8, !tbaa !38
  %42 = zext nneg i32 %.0 to i64
  %43 = getelementptr inbounds nuw [2 x ptr], ptr @perm_str, i64 0, i64 %42
  %44 = load ptr, ptr %43, align 8, !tbaa !38
  %45 = icmp eq i32 %.0, %10
  %46 = select i1 %45, ptr @.str.6, ptr @.str.7
  tail call void (ptr, i32, ptr, ...) @av_log(ptr noundef nonnull %5, i32 noundef 40, ptr noundef nonnull @.str.5, ptr noundef %41, ptr noundef %44, ptr noundef nonnull %46) #3
  %47 = icmp eq i32 %.0, 0
  %or.cond.not = or i1 %9, %47
  br i1 %or.cond.not, label %53, label %48

48:                                               ; preds = %38
  %49 = call i32 @ff_inlink_make_frame_writable(ptr noundef nonnull %0, ptr noundef nonnull %3) #3
  %50 = icmp slt i32 %49, 0
  br i1 %50, label %65, label %51

51:                                               ; preds = %48
  %52 = load ptr, ptr %3, align 8, !tbaa !24
  br label %.thread

53:                                               ; preds = %38
  %or.cond3 = and i1 %9, %47
  br i1 %or.cond3, label %54, label %.thread

54:                                               ; preds = %53
  %55 = tail call ptr @av_frame_clone(ptr noundef %1) #3
  %.not = icmp eq ptr %55, null
  br i1 %.not, label %65, label %60

.thread:                                          ; preds = %53, %51
  %.029.ph = phi ptr [ %52, %51 ], [ %1, %53 ]
  %56 = getelementptr inbounds nuw i8, ptr %5, i64 56
  %57 = load ptr, ptr %56, align 8, !tbaa !39
  %58 = load ptr, ptr %57, align 8, !tbaa !40
  %59 = call i32 @ff_filter_frame(ptr noundef %58, ptr noundef %.029.ph) #3
  br label %65

60:                                               ; preds = %54
  %61 = getelementptr inbounds nuw i8, ptr %5, i64 56
  %62 = load ptr, ptr %61, align 8, !tbaa !39
  %63 = load ptr, ptr %62, align 8, !tbaa !40
  %64 = tail call i32 @ff_filter_frame(ptr noundef %63, ptr noundef nonnull %55) #3
  call void @av_frame_free(ptr noundef nonnull %3) #3
  br label %65

65:                                               ; preds = %.thread, %60, %54, %48
  %.028 = phi i32 [ %49, %48 ], [ -12, %54 ], [ %64, %60 ], [ %59, %.thread ]
  ret i32 %.028
}